; Function Attrs: mustprogress nofree norecurse nosync nounwind willreturn memory(argmem: read) uwtable
define noundef zeroext i1 @_Z15ir_vdw_switchedPK10t_inputrec(ptr noundef readonly captures(none) %0) local_unnamed_addr #15 {
  %2 = getelementptr inbounds nuw i8, ptr %0, i64 392
  %3 = load i32, ptr %2, align 8, !tbaa !261
  %.off = add i32 %3, -1
  %switch = icmp ult i32 %.off, 2
  br i1 %switch, label %9, label %4

4:                                                ; preds = %1
  %5 = getelementptr inbounds nuw i8, ptr %0, i64 396
  %6 = load i32, ptr %5, align 4, !tbaa !262
  %7 = icmp eq i32 %6, 3
  %8 = icmp eq i32 %6, 5
  %spec.select = or i1 %7, %8
  br label %9

9:                                                ; preds = %4, %1
  %10 = phi i1 [ true, %1 ], [ %spec.select, %4 ]
  ret i1 %10
}